target datalayout = "e-m:e-p270:32:32-p271:32:32-p272:64:64-i64:64-i128:128-f80:128-n8:16:32:64-S128"
target triple = "x86_64-pc-linux-gnu"

%struct.mbedtls_dhm_context = type { %struct.mbedtls_mpi, %struct.mbedtls_mpi, %struct.mbedtls_mpi, %struct.mbedtls_mpi, %struct.mbedtls_mpi, %struct.mbedtls_mpi, %struct.mbedtls_mpi, %struct.mbedtls_mpi, %struct.mbedtls_mpi, %struct.mbedtls_mpi }
%struct.mbedtls_mpi = type { ptr, i16, i16 }
%struct.mbedtls_pem_context = type { ptr, i64, ptr }

@.str = private unnamed_addr constant [117 x i8] c"generated/home/dtcxzyw/WorkSpace/Projects/compilers/llvm-opt-benchmark/bench/lief/bench_build/mbed_src/library/dhm.c\00", align 1
@.str.1 = private unnamed_addr constant [30 x i8] c"-----BEGIN DH PARAMETERS-----\00", align 1
@.str.2 = private unnamed_addr constant [28 x i8] c"-----END DH PARAMETERS-----\00", align 1

; Function Attrs: inlinehint nounwind uwtable
define internal i32 @mbedtls_error_add(i32 noundef %0, i32 noundef %1, ptr noundef %2, i32 noundef %3) #4 {
  %5 = alloca i32, align 4
  %6 = alloca i32, align 4
  %7 = alloca ptr, align 8
  %8 = alloca i32, align 4
  store i32 %0, ptr %5, align 4, !tbaa !8
  store i32 %1, ptr %6, align 4, !tbaa !8
  store ptr %2, ptr %7, align 8, !tbaa !15
  store i32 %3, ptr %8, align 4, !tbaa !8
  %9 = load i32, ptr %5, align 4, !tbaa !8
  %10 = load i32, ptr %6, align 4, !tbaa !8
  %11 = add nsw i32 %9, %10
  ret i32 %11
}

; Function Attrs: nounwind uwtable
define hidden i32 @mbedtls_dhm_parse_dhm(ptr noundef %0, ptr noundef %1, i64 noundef %2) #0 {
  %4 = alloca i32, align 4
  %5 = alloca ptr, align 8
  %6 = alloca ptr, align 8
  %7 = alloca i64, align 8
  %8 = alloca i32, align 4
  %9 = alloca i64, align 8
  %10 = alloca ptr, align 8
  %11 = alloca ptr, align 8
  %12 = alloca %struct.mbedtls_pem_context, align 8
  %13 = alloca %struct.mbedtls_mpi, align 8
  %14 = alloca i32, align 4
  store ptr %0, ptr %5, align 8, !tbaa !3
  store ptr %1, ptr %6, align 8, !tbaa !15
  store i64 %2, ptr %7, align 8, !tbaa !20
  call void @llvm.lifetime.start.p0(i64 4, ptr %8) #10
  store i32 -110, ptr %8, align 4, !tbaa !8
  call void @llvm.lifetime.start.p0(i64 8, ptr %9) #10
  call void @llvm.lifetime.start.p0(i64 8, ptr %10) #10
  call void @llvm.lifetime.start.p0(i64 8, ptr %11) #10
  call void @llvm.lifetime.start.p0(i64 24, ptr %12) #10
  call void @mbedtls_pem_init(ptr noundef %12)
  %15 = load i64, ptr %7, align 8, !tbaa !20
  %16 = icmp eq i64 %15, 0
  br i1 %16, label %25, label %17

17:                                               ; preds = %3
  %18 = load ptr, ptr %6, align 8, !tbaa !15
  %19 = load i64, ptr %7, align 8, !tbaa !20
  %20 = sub i64 %19, 1
  %21 = getelementptr inbounds nuw i8, ptr %18, i64 %20
  %22 = load i8, ptr %21, align 1, !tbaa !22
  %23 = zext i8 %22 to i32
  %24 = icmp ne i32 %23, 0
  br i1 %24, label %25, label %26

25:                                               ; preds = %17, %3
  store i32 -4224, ptr %8, align 4, !tbaa !8
  br label %29

26:                                               ; preds = %17
  %27 = load ptr, ptr %6, align 8, !tbaa !15
  %28 = call i32 @mbedtls_pem_read_buffer(ptr noundef %12, ptr noundef @.str.1, ptr noundef @.str.2, ptr noundef %27, ptr noundef null, i64 noundef 0, ptr noundef %7)
  store i32 %28, ptr %8, align 4, !tbaa !8
  br label %29

29:                                               ; preds = %26, %25
  %30 = load i32, ptr %8, align 4, !tbaa !8
  %31 = icmp eq i32 %30, 0
  br i1 %31, label %32, label %35

32:                                               ; preds = %29
  %33 = getelementptr inbounds nuw %struct.mbedtls_pem_context, ptr %12, i32 0, i32 1
  %34 = load i64, ptr %33, align 8, !tbaa !23
  store i64 %34, ptr %7, align 8, !tbaa !20
  br label %40

35:                                               ; preds = %29
  %36 = load i32, ptr %8, align 4, !tbaa !8
  %37 = icmp ne i32 %36, -4224
  br i1 %37, label %38, label %39

38:                                               ; preds = %35
  br label %100

39:                                               ; preds = %35
  br label %40

40:                                               ; preds = %39, %32
  %41 = load i32, ptr %8, align 4, !tbaa !8
  %42 = icmp eq i32 %41, 0
  br i1 %42, label %43, label %46

43:                                               ; preds = %40
  %44 = getelementptr inbounds nuw %struct.mbedtls_pem_context, ptr %12, i32 0, i32 0
  %45 = load ptr, ptr %44, align 8, !tbaa !25
  br label %48

46:                                               ; preds = %40
  %47 = load ptr, ptr %6, align 8, !tbaa !15
  br label %48

48:                                               ; preds = %46, %43
  %49 = phi ptr [ %45, %43 ], [ %47, %46 ]
  store ptr %49, ptr %10, align 8, !tbaa !15
  %50 = load ptr, ptr %10, align 8, !tbaa !15
  %51 = load i64, ptr %7, align 8, !tbaa !20
  %52 = getelementptr inbounds nuw i8, ptr %50, i64 %51
  store ptr %52, ptr %11, align 8, !tbaa !15
  %53 = load ptr, ptr %11, align 8, !tbaa !15
  %54 = call i32 @mbedtls_asn1_get_tag(ptr noundef %10, ptr noundef %53, ptr noundef %9, i32 noundef 48)
  store i32 %54, ptr %8, align 4, !tbaa !8
  %55 = icmp ne i32 %54, 0
  br i1 %55, label %56, label %59

56:                                               ; preds = %48
  %57 = load i32, ptr %8, align 4, !tbaa !8
  %58 = call i32 @mbedtls_error_add(i32 noundef -13184, i32 noundef %57, ptr noundef @.str, i32 noundef 529)
  store i32 %58, ptr %8, align 4, !tbaa !8
  br label %100

59:                                               ; preds = %48
  %60 = load ptr, ptr %10, align 8, !tbaa !15
  %61 = load i64, ptr %9, align 8, !tbaa !20
  %62 = getelementptr inbounds nuw i8, ptr %60, i64 %61
  store ptr %62, ptr %11, align 8, !tbaa !15
  %63 = load ptr, ptr %11, align 8, !tbaa !15
  %64 = load ptr, ptr %5, align 8, !tbaa !3
  %65 = getelementptr inbounds nuw %struct.mbedtls_dhm_context, ptr %64, i32 0, i32 0
  %66 = call i32 @mbedtls_asn1_get_mpi(ptr noundef %10, ptr noundef %63, ptr noundef %65)
  store i32 %66, ptr %8, align 4, !tbaa !8
  %67 = icmp ne i32 %66, 0
  br i1 %67, label %74, label %68

68:                                               ; preds = %59
  %69 = load ptr, ptr %11, align 8, !tbaa !15
  %70 = load ptr, ptr %5, align 8, !tbaa !3
  %71 = getelementptr inbounds nuw %struct.mbedtls_dhm_context, ptr %70, i32 0, i32 1
  %72 = call i32 @mbedtls_asn1_get_mpi(ptr noundef %10, ptr noundef %69, ptr noundef %71)
  store i32 %72, ptr %8, align 4, !tbaa !8
  %73 = icmp ne i32 %72, 0
  br i1 %73, label %74, label %77

74:                                               ; preds = %68, %59
  %75 = load i32, ptr %8, align 4, !tbaa !8
  %76 = call i32 @mbedtls_error_add(i32 noundef -13184, i32 noundef %75, ptr noundef @.str, i32 noundef 537)
  store i32 %76, ptr %8, align 4, !tbaa !8
  br label %100

77:                                               ; preds = %68
  %78 = load ptr, ptr %10, align 8, !tbaa !15
  %79 = load ptr, ptr %11, align 8, !tbaa !15
  %80 = icmp ne ptr %78, %79
  br i1 %80, label %81, label %99

81:                                               ; preds = %77
  call void @llvm.lifetime.start.p0(i64 16, ptr %13) #10
  call void @mbedtls_mpi_init(ptr noundef %13)
  %82 = load ptr, ptr %11, align 8, !tbaa !15
  %83 = call i32 @mbedtls_asn1_get_mpi(ptr noundef %10, ptr noundef %82, ptr noundef %13)
  store i32 %83, ptr %8, align 4, !tbaa !8
  call void @mbedtls_mpi_free(ptr noundef %13)
  %84 = load i32, ptr %8, align 4, !tbaa !8
  %85 = icmp ne i32 %84, 0
  br i1 %85, label %86, label %89

86:                                               ; preds = %81
  %87 = load i32, ptr %8, align 4, !tbaa !8
  %88 = call i32 @mbedtls_error_add(i32 noundef -13184, i32 noundef %87, ptr noundef @.str, i32 noundef 549)
  store i32 %88, ptr %8, align 4, !tbaa !8
  store i32 2, ptr %14, align 4
  br label %96

89:                                               ; preds = %81
  %90 = load ptr, ptr %10, align 8, !tbaa !15
  %91 = load ptr, ptr %11, align 8, !tbaa !15
  %92 = icmp ne ptr %90, %91
  br i1 %92, label %93, label %95

93:                                               ; preds = %89
  %94 = call i32 @mbedtls_error_add(i32 noundef -13184, i32 noundef -102, ptr noundef @.str, i32 noundef 554)
  store i32 %94, ptr %8, align 4, !tbaa !8
  store i32 2, ptr %14, align 4
  br label %96

95:                                               ; preds = %89
  store i32 0, ptr %14, align 4
  br label %96

96:                                               ; preds = %93, %86, %95
  call void @llvm.lifetime.end.p0(i64 16, ptr %13) #10
  %97 = load i32, ptr %14, align 4
  switch i32 %97, label %107 [
    i32 0, label %98
    i32 2, label %100
  ]

98:                                               ; preds = %96
  br label %99

99:                                               ; preds = %98, %77
  store i32 0, ptr %8, align 4, !tbaa !8
  br label %100

100:                                              ; preds = %99, %96, %74, %56, %38
  call void @mbedtls_pem_free(ptr noundef %12)
  %101 = load i32, ptr %8, align 4, !tbaa !8
  %102 = icmp ne i32 %101, 0
  br i1 %102, label %103, label %105

103:                                              ; preds = %100
  %104 = load ptr, ptr %5, align 8, !tbaa !3
  call void @mbedtls_dhm_free(ptr noundef %104)
  br label %105

105:                                              ; preds = %103, %100
  %106 = load i32, ptr %8, align 4, !tbaa !8
  store i32 %106, ptr %4, align 4
  store i32 1, ptr %14, align 4
  br label %107

107:                                              ; preds = %105, %96
  call void @llvm.lifetime.end.p0(i64 24, ptr %12) #10
  call void @llvm.lifetime.end.p0(i64 8, ptr %11) #10
  call void @llvm.lifetime.end.p0(i64 8, ptr %10) #10
  call void @llvm.lifetime.end.p0(i64 8, ptr %9) #10
  call void @llvm.lifetime.end.p0(i64 4, ptr %8) #10
  %108 = load i32, ptr %4, align 4
  ret i32 %108
}