; Function Attrs: nounwind uwtable
define hidden i32 @mbedtls_dhm_parse_dhm(ptr noundef %0, ptr noundef %1, i64 noundef %2) local_unnamed_addr #2 {
  %4 = alloca i64, align 8
  %5 = alloca i64, align 8
  %6 = alloca ptr, align 8
  %7 = alloca %struct.mbedtls_pem_context, align 8
  %8 = alloca %struct.mbedtls_mpi, align 8
  store i64 %2, ptr %4, align 8, !tbaa !9
  call void @llvm.lifetime.start.p0(i64 8, ptr nonnull %5) #10
  call void @llvm.lifetime.start.p0(i64 8, ptr nonnull %6) #10
  call void @llvm.lifetime.start.p0(i64 24, ptr nonnull %7) #10
  call void @mbedtls_pem_init(ptr noundef nonnull %7) #10
  %9 = icmp eq i64 %2, 0
  br i1 %9, label %.thread46, label %10

10:                                               ; preds = %3
  %11 = getelementptr i8, ptr %1, i64 %2
  %12 = getelementptr i8, ptr %11, i64 -1
  %13 = load i8, ptr %12, align 1, !tbaa !8
  %.not = icmp eq i8 %13, 0
  br i1 %.not, label %14, label %.thread46

14:                                               ; preds = %10
  %15 = call i32 @mbedtls_pem_read_buffer(ptr noundef nonnull %7, ptr noundef nonnull @.str.1, ptr noundef nonnull @.str.2, ptr noundef nonnull %1, ptr noundef null, i64 noundef 0, ptr noundef nonnull %4) #10
  switch i32 %15, label %.thread57 [
    i32 0, label %16
    i32 -4224, label %..thread46_crit_edge
  ]

..thread46_crit_edge:                             ; preds = %14
  %.pre = load i64, ptr %4, align 8, !tbaa !9
  br label %.thread46

.thread57:                                        ; preds = %14
  call void @mbedtls_pem_free(ptr noundef nonnull %7) #10
  br label %46

16:                                               ; preds = %14
  %17 = getelementptr inbounds nuw i8, ptr %7, i64 8
  %18 = load i64, ptr %17, align 8, !tbaa !11
  store i64 %18, ptr %4, align 8, !tbaa !9
  %19 = load ptr, ptr %7, align 8
  br label %.thread46

.thread46:                                        ; preds = %..thread46_crit_edge, %10, %3, %16
  %20 = phi i64 [ %18, %16 ], [ 0, %3 ], [ %2, %10 ], [ %.pre, %..thread46_crit_edge ]
  %21 = phi ptr [ %19, %16 ], [ %1, %3 ], [ %1, %10 ], [ %1, %..thread46_crit_edge ]
  store ptr %21, ptr %6, align 8, !tbaa !3
  %22 = getelementptr inbounds nuw i8, ptr %21, i64 %20
  %23 = call i32 @mbedtls_asn1_get_tag(ptr noundef nonnull %6, ptr noundef %22, ptr noundef nonnull %5, i32 noundef 48) #10
  %.not32 = icmp eq i32 %23, 0
  br i1 %.not32, label %26, label %24

24:                                               ; preds = %.thread46
  %25 = add nsw i32 %23, -13184
  br label %45

26:                                               ; preds = %.thread46
  %27 = load ptr, ptr %6, align 8, !tbaa !3
  %28 = load i64, ptr %5, align 8, !tbaa !9
  %29 = getelementptr inbounds nuw i8, ptr %27, i64 %28
  %30 = call i32 @mbedtls_asn1_get_mpi(ptr noundef nonnull %6, ptr noundef %29, ptr noundef %0) #10
  %.not33 = icmp eq i32 %30, 0
  br i1 %.not33, label %31, label %34

31:                                               ; preds = %26
  %32 = getelementptr inbounds nuw i8, ptr %0, i64 16
  %33 = call i32 @mbedtls_asn1_get_mpi(ptr noundef nonnull %6, ptr noundef %29, ptr noundef nonnull %32) #10
  %.not34 = icmp eq i32 %33, 0
  br i1 %.not34, label %36, label %34

34:                                               ; preds = %31, %26
  %.2 = phi i32 [ %30, %26 ], [ %33, %31 ]
  %35 = add nsw i32 %.2, -13184
  br label %45

36:                                               ; preds = %31
  %37 = load ptr, ptr %6, align 8, !tbaa !3
  %.not35 = icmp eq ptr %37, %29
  br i1 %.not35, label %.thread53, label %38

38:                                               ; preds = %36
  call void @llvm.lifetime.start.p0(i64 16, ptr nonnull %8) #10
  call void @mbedtls_mpi_init(ptr noundef nonnull %8) #10
  %39 = call i32 @mbedtls_asn1_get_mpi(ptr noundef nonnull %6, ptr noundef %29, ptr noundef nonnull %8) #10
  call void @mbedtls_mpi_free(ptr noundef nonnull %8) #10
  %.not36 = icmp eq i32 %39, 0
  br i1 %.not36, label %42, label %40

40:                                               ; preds = %38
  %41 = add nsw i32 %39, -13184
  br label %.thread48

42:                                               ; preds = %38
  %43 = load ptr, ptr %6, align 8, !tbaa !3
  %.not37 = icmp eq ptr %43, %29
  br i1 %.not37, label %44, label %.thread48

.thread48:                                        ; preds = %40, %42
  %.3.ph = phi i32 [ %41, %40 ], [ -13286, %42 ]
  call void @llvm.lifetime.end.p0(i64 16, ptr nonnull %8) #10
  br label %45

44:                                               ; preds = %42
  call void @llvm.lifetime.end.p0(i64 16, ptr nonnull %8) #10
  br label %.thread53

.thread53:                                        ; preds = %44, %36
  call void @mbedtls_pem_free(ptr noundef nonnull %7) #10
  br label %47

45:                                               ; preds = %.thread48, %34, %24
  %.1 = phi i32 [ %25, %24 ], [ %35, %34 ], [ %.3.ph, %.thread48 ]
  call void @mbedtls_pem_free(ptr noundef nonnull %7) #10
  %.not38 = icmp eq i32 %.1, 0
  br i1 %.not38, label %47, label %46

46:                                               ; preds = %.thread57, %45
  %.160 = phi i32 [ %15, %.thread57 ], [ %.1, %45 ]
  call void @mbedtls_dhm_free(ptr noundef %0)
  br label %47

47:                                               ; preds = %.thread53, %45, %46
  %.156 = phi i32 [ 0, %.thread53 ], [ 0, %45 ], [ %.160, %46 ]
  call void @llvm.lifetime.end.p0(i64 24, ptr nonnull %7) #10
  call void @llvm.lifetime.end.p0(i64 8, ptr nonnull %6) #10
  call void @llvm.lifetime.end.p0(i64 8, ptr nonnull %5) #10
  ret i32 %.156
}